; ModuleID = 'source-C-CXX/35/1533.c'
source_filename = "source-C-CXX/35/1533.c"
target datalayout = "e-m:e-p270:32:32-p271:32:32-p272:64:64-i64:64-f80:128-n8:16:32:64-S128"
target triple = "x86_64-pc-linux-gnu"

@.str = private unnamed_addr constant [5 x i8] c"%s%s\00", align 1
@.str.1 = private unnamed_addr constant [3 x i8] c"NO\00", align 1
@.str.2 = private unnamed_addr constant [4 x i8] c"YES\00", align 1

; Function Attrs: nofree nounwind sspstrong uwtable
define dso_local i32 @main() local_unnamed_addr #0 {
  %1 = alloca [100 x i8], align 16
  %2 = alloca [100 x i8], align 16
  %3 = getelementptr inbounds [100 x i8], [100 x i8]* %1, i64 0, i64 0
  call void @llvm.lifetime.start.p0i8(i64 100, i8* nonnull %3) #4
  %4 = getelementptr inbounds [100 x i8], [100 x i8]* %2, i64 0, i64 0
  call void @llvm.lifetime.start.p0i8(i64 100, i8* nonnull %4) #4
  %5 = call i32 (i8*, ...) @__isoc99_scanf(i8* getelementptr inbounds ([5 x i8], [5 x i8]* @.str, i64 0, i64 0), i8* nonnull %3, i8* nonnull %4)
  %6 = call i64 @strlen(i8* noundef nonnull %3) #5
  %7 = trunc i64 %6 to i32
  %8 = call i64 @strlen(i8* noundef nonnull %4) #5
  %9 = trunc i64 %8 to i32
  %10 = icmp eq i32 %7, %9
  br i1 %10, label %11, label %47

11:                                               ; preds = %0
  %12 = add i32 %7, -1
  %13 = icmp sgt i32 %7, 1
  br i1 %13, label %14, label %39

14:                                               ; preds = %11
  %15 = zext i32 %12 to i64
  %16 = shl i64 %6, 32
  %17 = ashr exact i64 %16, 32
  br label %18

18:                                               ; preds = %14, %36
  %19 = phi i64 [ 0, %14 ], [ %37, %36 ]
  %20 = getelementptr inbounds [100 x i8], [100 x i8]* %2, i64 0, i64 %19
  %21 = load i8, i8* %20, align 1, !tbaa !5
  %22 = getelementptr inbounds [100 x i8], [100 x i8]* %1, i64 0, i64 %19
  %23 = load i8, i8* %22, align 1, !tbaa !5
  %24 = icmp eq i8 %21, %23
  br i1 %24, label %36, label %25

25:                                               ; preds = %18, %29
  %26 = phi i64 [ %27, %29 ], [ %19, %18 ]
  %27 = add nuw nsw i64 %26, 1
  %28 = icmp slt i64 %27, %17
  br i1 %28, label %29, label %36

29:                                               ; preds = %25
  %30 = getelementptr inbounds [100 x i8], [100 x i8]* %2, i64 0, i64 %27
  %31 = load i8, i8* %30, align 1, !tbaa !5
  %32 = icmp eq i8 %31, %23
  br i1 %32, label %33, label %25, !llvm.loop !8

33:                                               ; preds = %29
  %34 = and i64 %27, 4294967295
  %35 = getelementptr inbounds [100 x i8], [100 x i8]* %2, i64 0, i64 %34
  store i8 %23, i8* %20, align 1, !tbaa !5
  store i8 %21, i8* %35, align 1, !tbaa !5
  br label %36

36:                                               ; preds = %25, %18, %33
  %37 = add nuw nsw i64 %19, 1
  %38 = icmp eq i64 %37, %15
  br i1 %38, label %39, label %18, !llvm.loop !10

39:                                               ; preds = %36, %11
  %40 = sext i32 %12 to i64
  %41 = getelementptr inbounds [100 x i8], [100 x i8]* %2, i64 0, i64 %40
  %42 = load i8, i8* %41, align 1, !tbaa !5
  %43 = getelementptr inbounds [100 x i8], [100 x i8]* %1, i64 0, i64 %40
  %44 = load i8, i8* %43, align 1, !tbaa !5
  %45 = icmp eq i8 %42, %44
  %46 = select i1 %45, i8* getelementptr inbounds ([4 x i8], [4 x i8]* @.str.2, i64 0, i64 0), i8* getelementptr inbounds ([3 x i8], [3 x i8]* @.str.1, i64 0, i64 0)
  br label %47

47:                                               ; preds = %39, %0
  %48 = phi i8* [ getelementptr inbounds ([3 x i8], [3 x i8]* @.str.1, i64 0, i64 0), %0 ], [ %46, %39 ]
  %49 = call i32 (i8*, ...) @printf(i8* nonnull dereferenceable(1) %48)
  call void @llvm.lifetime.end.p0i8(i64 100, i8* nonnull %4) #4
  call void @llvm.lifetime.end.p0i8(i64 100, i8* nonnull %3) #4
  ret i32 0
}

; Function Attrs: argmemonly mustprogress nofree nosync nounwind willreturn
declare void @llvm.lifetime.start.p0i8(i64 immarg, i8* nocapture) #1

; Function Attrs: nofree nounwind
declare noundef i32 @__isoc99_scanf(i8* nocapture noundef readonly, ...) local_unnamed_addr #2

; Function Attrs: argmemonly mustprogress nofree nounwind readonly willreturn
declare i64 @strlen(i8* nocapture) local_unnamed_addr #3

; Function Attrs: nofree nounwind
declare noundef i32 @printf(i8* nocapture noundef readonly, ...) local_unnamed_addr #2

; Function Attrs: argmemonly mustprogress nofree nosync nounwind willreturn
declare void @llvm.lifetime.end.p0i8(i64 immarg, i8* nocapture) #1


!llvm.module.flags = !{!0, !1, !2, !3}
!llvm.ident = !{!4}

!0 = !{i32 1, !"wchar_size", i32 4}
!1 = !{i32 7, !"PIC Level", i32 2}
!2 = !{i32 7, !"PIE Level", i32 2}
!3 = !{i32 7, !"uwtable", i32 1}
!4 = !{!"clang version 13.0.0"}
!5 = !{!6, !6, i64 0}
!6 = !{!"omnipotent char", !7, i64 0}
!7 = !{!"Simple C/C++ TBAA"}
!8 = distinct !{!8, !9}
!9 = !{!"llvm.loop.mustprogress"}
!10 = distinct !{!10, !9}
